Certificate:
    Data:
        Version: 1 (0x0)
        Serial Number:
            0d:4c:27:b6:e3:ff:60:66:bc:d9:b9:70:9c:4b:16:de:00:1e:40:fd
        Signature Algorithm: sha256WithRSAEncryption
        Issuer: C = RU, ST = Some-State, O = Internet Widgits Pty Ltd
        Validity
            Not Before: Oct 25 04:48:33 2024 GMT
            Not After : Oct 25 04:48:33 2025 GMT
        Subject: C = AU, ST = Some-State, O = Internet Widgits Pty Ltd
        Subject Public Key Info:
            Public Key Algorithm: rsaEncryption
                Public-Key: (2048 bit)
                Modulus:
                    00:b2:31:a1:14:94:a1:7d:42:50:b9:fb:6b:db:13:
                    89:5d:9b:7f:a8:fa:ab:9e:87:c8:2c:1f:ff:b7:c5:
                    f7:ac:1d:0e:4c:98:83:d1:6a:aa:c1:84:62:dc:c6:
                    9b:e7:e9:10:8a:40:bb:42:57:b8:ee:4c:fe:c0:cf:
                    c1:8c:c9:cf:da:32:f4:68:ae:23:63:ac:61:39:fc:
                    d5:ab:28:7c:b6:b6:32:b6:b4:d9:ea:8c:1c:19:70:
                    b6:ec:2f:6c:4f:66:aa:ea:6e:de:b4:1e:72:43:95:
                    05:74:51:93:38:3b:9d:1c:e6:2e:9d:71:8d:db:60:
                    cb:8f:0d:e5:ca:08:9e:cd:69:3c:4c:34:71:9c:fa:
                    ef:63:36:15:36:93:93:17:a9:32:d7:c0:85:d2:12:
                    ca:b8:e6:9a:ae:99:75:78:5d:c8:52:70:cd:f3:9e:
                    b6:38:01:a3:d8:a7:32:79:2a:e0:d0:f8:e6:39:09:
                    7c:70:02:e6:ee:0d:cf:1c:c1:a1:07:48:2c:7f:d0:
                    79:d7:8c:9e:18:34:b0:f1:d2:5c:78:ba:0b:f6:38:
                    ba:7f:ee:ae:52:90:67:9a:84:43:57:ac:1b:36:10:
                    21:93:32:ef:da:c7:b9:82:32:1e:e7:69:77:53:8f:
                    62:98:f8:32:d5:87:00:72:58:ff:b0:ab:26:3f:7e:
                    de:93
                Exponent: 65537 (0x10001)
    Signature Algorithm: sha256WithRSAEncryption
    Signature Value:
        32:05:33:62:fa:97:91:8c:30:27:22:87:e4:f5:54:92:af:86:
        36:11:5c:1c:81:09:7f:5a:b2:bb:3f:77:20:78:08:32:74:2f:
        c9:1e:d2:cd:be:c5:49:b4:9c:3a:ce:54:47:9a:68:07:e1:7f:
        06:27:e3:a6:12:81:3d:15:63:4e:69:9e:f0:b1:29:ee:47:74:
        83:7a:89:18:c0:96:56:17:bf:60:8d:a4:8f:d3:12:bc:60:dc:
        b9:05:4d:30:4d:f7:07:df:38:15:0b:c3:4d:4a:5e:3f:8a:cc:
        17:55:7f:ff:77:2a:94:93:0c:fc:c8:4a:e2:c2:d1:30:44:4a:
        f1:15:ef:f6:89:b7:a2:27:68:43:99:f4:d4:28:6c:84:71:ee:
        bb:d6:57:50:63:83:f5:e7:1e:4e:a2:30:75:fc:48:3f:d7:70:
        82:ba:67:e7:e0:21:b9:ef:c0:ec:2a:5c:c3:f3:69:e4:4a:9a:
        2d:e0:ff:22:89:fe:7d:e8:76:49:72:12:8a:e4:1a:b7:58:3d:
        5b:e6:e3:ad:52:51:f5:93:ae:21:6a:4d:6e:0a:50:b3:5f:ad:
        ae:55:e5:16:f8:e3:a5:aa:f8:99:46:39:d6:14:16:96:eb:c6:
        8b:8d:27:d7:12:14:8b:29:35:1a:71:b5:a1:11:e2:ae:01:ea:
        cb:98:e0:72
-----BEGIN CERTIFICATE-----
MIIDETCCAfkCFA1MJ7bj/2BmvNm5cJxLFt4AHkD9MA0GCSqGSIb3DQEBCwUAMEUx
CzAJBgNVBAYTAlJVMRMwEQYDVQQIDApTb21lLVN0YXRlMSEwHwYDVQQKDBhJbnRl
cm5ldCBXaWRnaXRzIFB0eSBMdGQwHhcNMjQxMDI1MDQ0ODMzWhcNMjUxMDI1MDQ0
ODMzWjBFMQswCQYDVQQGEwJBVTETMBEGA1UECAwKU29tZS1TdGF0ZTEhMB8GA1UE
CgwYSW50ZXJuZXQgV2lkZ2l0cyBQdHkgTHRkMIIBIjANBgkqhkiG9w0BAQEFAAOC
AQ8AMIIBCgKCAQEAsjGhFJShfUJQuftr2xOJXZt/qPqrnofILB//t8X3rB0OTJiD
0WqqwYRi3Mab5+kQikC7Qle47kz+wM/BjMnP2jL0aK4jY6xhOfzVqyh8trYytrTZ
6owcGXC27C9sT2aq6m7etB5yQ5UFdFGTODudHOYunXGN22DLjw3lygiezWk8TDRx
nPrvYzYVNpOTF6ky18CF0hLKuOaarpl1eF3IUnDN8562OAGj2KcyeSrg0PjmOQl8
cALm7g3PHMGhB0gsf9B514yeGDSw8dJceLoL9ji6f+6uUpBnmoRDV6wbNhAhkzLv
2se5gjIe52l3U49imPgy1YcAclj/sKsmP37ekwIDAQABMA0GCSqGSIb3DQEBCwUA
A4IBAQAyBTNi+peRjDAnIofk9VSSr4Y2EVwcgQl/WrK7P3cgeAgydC/JHtLNvsVJ
tJw6zlRHmmgH4X8GJ+OmEoE9FWNOaZ7wsSnuR3SDeokYwJZWF79gjaSP0xK8YNy5
BU0wTfcH3zgVC8NNSl4/iswXVX//dyqUkwz8yEriwtEwRErxFe/2ibeiJ2hDmfTU
KGyEce671ldQY4P15x5OojB1/Eg/13CCumfn4CG578DsKlzD82nkSpot4P8iif59
6HZJchKK5Bq3WD1b5uOtUlH1k64hak1uClCzX62uVeUW+OOlqviZRjnWFBaW68aL
jSfXEhSLKTUacbWhEeKuAerLmOBy
-----END CERTIFICATE-----
